; Function Attrs: mustprogress nounwind uwtable
define void @_ZN5arrow2io22CompressedOutputStreamD0Ev(ptr noundef nonnull align 8 dereferenceable(16) %this) unnamed_addr #3 align 2 personality ptr @__gxx_personality_v0 {
entry:
  store ptr getelementptr inbounds ({ [12 x ptr], [15 x ptr] }, ptr @_ZTVN5arrow2io22CompressedOutputStreamE, i64 0, i32 0, i64 3), ptr %this, align 8
  %add.ptr.i.i = getelementptr inbounds i8, ptr %this, i64 16
  store ptr getelementptr inbounds ({ [12 x ptr], [15 x ptr] }, ptr @_ZTVN5arrow2io22CompressedOutputStreamE, i64 0, i32 1, i64 8), ptr %add.ptr.i.i, align 8
  invoke void @_ZN5arrow2io8internal19CloseFromDestructorEPNS0_13FileInterfaceE(ptr noundef nonnull %add.ptr.i.i)
          to label %invoke.cont.i.i unwind label %terminate.lpad.i.i

invoke.cont.i.i:                                  ; preds = %entry
  %impl_.i.i = getelementptr inbounds i8, ptr %this, i64 8
  %0 = load ptr, ptr %impl_.i.i, align 8
  %cmp.not.i.i.i = icmp eq ptr %0, null
  br i1 %cmp.not.i.i.i, label %_ZN5arrow2io22CompressedOutputStreamD1Ev.exit, label %_ZNKSt14default_deleteIN5arrow2io22CompressedOutputStream4ImplEEclEPS3_.exit.i.i.i

_ZNKSt14default_deleteIN5arrow2io22CompressedOutputStream4ImplEEclEPS3_.exit.i.i.i: ; preds = %invoke.cont.i.i
  tail call void @_ZN5arrow2io22CompressedOutputStream4ImplD2Ev(ptr noundef nonnull align 8 dereferenceable(120) %0) #21
  tail call void @_ZdlPv(ptr noundef nonnull %0) #22
  br label %_ZN5arrow2io22CompressedOutputStreamD1Ev.exit

terminate.lpad.i.i:                               ; preds = %entry
  %1 = landingpad { ptr, i32 }
          catch ptr null
  %2 = extractvalue { ptr, i32 } %1, 0
  tail call void @__clang_call_terminate(ptr %2) #23
  unreachable

_ZN5arrow2io22CompressedOutputStreamD1Ev.exit:    ; preds = %invoke.cont.i.i, %_ZNKSt14default_deleteIN5arrow2io22CompressedOutputStream4ImplEEclEPS3_.exit.i.i.i
  store ptr null, ptr %impl_.i.i, align 8
  tail call void @_ZN5arrow2io13FileInterfaceD2Ev(ptr noundef nonnull align 8 dereferenceable(28) %add.ptr.i.i) #21
  tail call void @_ZdlPv(ptr noundef nonnull %this) #22
  ret void
}